target datalayout = "e-m:e-p270:32:32-p271:32:32-p272:64:64-i64:64-i128:128-f80:128-n8:16:32:64-S128"
target triple = "x86_64-pc-linux-gnu"

%struct.coder = type { i32, i32, i32, i32 }

; Function Attrs: inlinehint nounwind uwtable
define void @Ptngc_out8bits(ptr noundef %0, ptr noundef %1) #4 {
  %3 = alloca ptr, align 8
  %4 = alloca ptr, align 8
  %5 = alloca i32, align 4
  %6 = alloca i8, align 1
  store ptr %0, ptr %3, align 8, !tbaa !3
  store ptr %1, ptr %4, align 8, !tbaa !11
  br label %7

7:                                                ; preds = %12, %2
  %8 = load ptr, ptr %3, align 8, !tbaa !3
  %9 = getelementptr inbounds nuw %struct.coder, ptr %8, i32 0, i32 1
  %10 = load i32, ptr %9, align 4, !tbaa !8
  %11 = icmp sge i32 %10, 8
  br i1 %11, label %12, label %41

12:                                               ; preds = %7
  call void @llvm.lifetime.start.p0(i64 4, ptr %5) #5
  call void @llvm.lifetime.start.p0(i64 1, ptr %6) #5
  %13 = load ptr, ptr %3, align 8, !tbaa !3
  %14 = getelementptr inbounds nuw %struct.coder, ptr %13, i32 0, i32 1
  %15 = load i32, ptr %14, align 4, !tbaa !8
  %16 = sub nsw i32 %15, 8
  store i32 %16, ptr %14, align 4, !tbaa !8
  %17 = load ptr, ptr %3, align 8, !tbaa !3
  %18 = getelementptr inbounds nuw %struct.coder, ptr %17, i32 0, i32 1
  %19 = load i32, ptr %18, align 4, !tbaa !8
  %20 = shl i32 255, %19
  %21 = xor i32 %20, -1
  store i32 %21, ptr %5, align 4, !tbaa !14
  %22 = load ptr, ptr %3, align 8, !tbaa !3
  %23 = getelementptr inbounds nuw %struct.coder, ptr %22, i32 0, i32 0
  %24 = load i32, ptr %23, align 4, !tbaa !15
  %25 = load ptr, ptr %3, align 8, !tbaa !3
  %26 = getelementptr inbounds nuw %struct.coder, ptr %25, i32 0, i32 1
  %27 = load i32, ptr %26, align 4, !tbaa !8
  %28 = lshr i32 %24, %27
  %29 = trunc i32 %28 to i8
  store i8 %29, ptr %6, align 1, !tbaa !16
  %30 = load i8, ptr %6, align 1, !tbaa !16
  %31 = load ptr, ptr %4, align 8, !tbaa !11
  %32 = load ptr, ptr %31, align 8, !tbaa !17
  store i8 %30, ptr %32, align 1, !tbaa !16
  %33 = load ptr, ptr %4, align 8, !tbaa !11
  %34 = load ptr, ptr %33, align 8, !tbaa !17
  %35 = getelementptr inbounds nuw i8, ptr %34, i32 1
  store ptr %35, ptr %33, align 8, !tbaa !17
  %36 = load i32, ptr %5, align 4, !tbaa !14
  %37 = load ptr, ptr %3, align 8, !tbaa !3
  %38 = getelementptr inbounds nuw %struct.coder, ptr %37, i32 0, i32 0
  %39 = load i32, ptr %38, align 4, !tbaa !15
  %40 = and i32 %39, %36
  store i32 %40, ptr %38, align 4, !tbaa !15
  call void @llvm.lifetime.end.p0(i64 1, ptr %6) #5
  call void @llvm.lifetime.end.p0(i64 4, ptr %5) #5
  br label %7, !llvm.loop !19

41:                                               ; preds = %7
  ret void
}

; Function Attrs: inlinehint nounwind uwtable
define void @Ptngc_writebits(ptr noundef %0, i32 noundef %1, i32 noundef %2, ptr noundef %3) #4 {
  %5 = alloca ptr, align 8
  %6 = alloca i32, align 4
  %7 = alloca i32, align 4
  %8 = alloca ptr, align 8
  store ptr %0, ptr %5, align 8, !tbaa !3
  store i32 %1, ptr %6, align 4, !tbaa !14
  store i32 %2, ptr %7, align 4, !tbaa !14
  store ptr %3, ptr %8, align 8, !tbaa !11
  %9 = load i32, ptr %7, align 4, !tbaa !14
  %10 = load ptr, ptr %5, align 8, !tbaa !3
  %11 = getelementptr inbounds nuw %struct.coder, ptr %10, i32 0, i32 0
  %12 = load i32, ptr %11, align 4, !tbaa !15
  %13 = shl i32 %12, %9
  store i32 %13, ptr %11, align 4, !tbaa !15
  %14 = load i32, ptr %7, align 4, !tbaa !14
  %15 = load ptr, ptr %5, align 8, !tbaa !3
  %16 = getelementptr inbounds nuw %struct.coder, ptr %15, i32 0, i32 1
  %17 = load i32, ptr %16, align 4, !tbaa !8
  %18 = add nsw i32 %17, %14
  store i32 %18, ptr %16, align 4, !tbaa !8
  %19 = load i32, ptr %6, align 4, !tbaa !14
  %20 = load ptr, ptr %5, align 8, !tbaa !3
  %21 = getelementptr inbounds nuw %struct.coder, ptr %20, i32 0, i32 0
  %22 = load i32, ptr %21, align 4, !tbaa !15
  %23 = or i32 %22, %19
  store i32 %23, ptr %21, align 4, !tbaa !15
  %24 = load ptr, ptr %5, align 8, !tbaa !3
  %25 = load ptr, ptr %8, align 8, !tbaa !11
  call void @Ptngc_out8bits(ptr noundef %24, ptr noundef %25)
  ret void
}