; Function Attrs: inlinehint nofree norecurse nosync nounwind memory(write, argmem: readwrite, inaccessiblemem: none) uwtable
define void @Ptngc_writebits(ptr noundef captures(none) %0, i32 noundef %1, i32 noundef %2, ptr noundef captures(none) %3) local_unnamed_addr #5 {
  %5 = load i32, ptr %0, align 4, !tbaa !8
  %6 = shl i32 %5, %2
  %7 = getelementptr inbounds nuw i8, ptr %0, i64 4
  %8 = load i32, ptr %7, align 4, !tbaa !3
  %9 = add nsw i32 %8, %2
  store i32 %9, ptr %7, align 4, !tbaa !3
  %10 = or i32 %6, %1
  store i32 %10, ptr %0, align 4, !tbaa !8
  %11 = icmp sgt i32 %9, 7
  br i1 %11, label %.lr.ph.preheader.i, label %Ptngc_out8bits.exit

.lr.ph.preheader.i:                               ; preds = %4
  %.pre9.i = load ptr, ptr %3, align 8, !tbaa !9
  br label %.lr.ph.i

.lr.ph.i:                                         ; preds = %.lr.ph.i, %.lr.ph.preheader.i
  %12 = phi ptr [ %21, %.lr.ph.i ], [ %.pre9.i, %.lr.ph.preheader.i ]
  %13 = phi i32 [ %23, %.lr.ph.i ], [ %10, %.lr.ph.preheader.i ]
  %14 = phi i32 [ %24, %.lr.ph.i ], [ %9, %.lr.ph.preheader.i ]
  %15 = add nsw i32 %14, -8
  store i32 %15, ptr %7, align 4, !tbaa !3
  %16 = shl i32 255, %15
  %17 = xor i32 %16, -1
  %18 = lshr i32 %13, %15
  %19 = trunc i32 %18 to i8
  store i8 %19, ptr %12, align 1, !tbaa !12
  %20 = load ptr, ptr %3, align 8, !tbaa !9
  %21 = getelementptr inbounds nuw i8, ptr %20, i64 1
  store ptr %21, ptr %3, align 8, !tbaa !9
  %22 = load i32, ptr %0, align 4, !tbaa !8
  %23 = and i32 %22, %17
  store i32 %23, ptr %0, align 4, !tbaa !8
  %24 = load i32, ptr %7, align 4, !tbaa !3
  %25 = icmp sgt i32 %24, 7
  br i1 %25, label %.lr.ph.i, label %Ptngc_out8bits.exit, !llvm.loop !13

Ptngc_out8bits.exit:                              ; preds = %.lr.ph.i, %4
  ret void
}